target datalayout = "e-m:e-p270:32:32-p271:32:32-p272:64:64-i64:64-i128:128-f80:128-n8:16:32:64-S128"
target triple = "x86_64-pc-linux-gnu"

%class.Node.base = type <{ ptr, ptr, ptr, i32, i32, i32, i32, i32, i32, i32 }>
%class.Phase = type { i32, ptr }
%class.Node = type <{ ptr, ptr, ptr, i32, i32, i32, i32, i32, i32, i32, [4 x i8] }>
%class.GraphKit = type <{ ptr, %class.Phase, ptr, ptr, ptr, ptr, i32, [4 x i8], ptr, ptr, i32, [4 x i8] }>
%class.SafePointNode = type <{ %class.MultiNode.base, [4 x i8], ptr, ptr, %class.ReplacedNodes, i8, [7 x i8] }>
%class.MultiNode.base = type { %class.Node.base }
%class.ReplacedNodes = type { ptr }
%class.JVMState = type { ptr, i32, i32, i32, i32, i32, i32, i32, i32, i32, ptr, ptr }

; Function Attrs: mustprogress nounwind uwtable
define linkonce_odr hidden noundef ptr @_ZNK4Node2inEj(ptr noundef nonnull align 8 dereferenceable(52) %0, i32 noundef %1) #1 comdat align 2 {
  %3 = alloca ptr, align 8
  %4 = alloca i32, align 4
  store ptr %0, ptr %3, align 8
  store i32 %1, ptr %4, align 4
  %5 = load ptr, ptr %3, align 8
  %6 = getelementptr inbounds %class.Node, ptr %5, i32 0, i32 1
  %7 = load ptr, ptr %6, align 8
  %8 = load i32, ptr %4, align 4
  %9 = zext i32 %8 to i64
  %10 = getelementptr inbounds ptr, ptr %7, i64 %9
  %11 = load ptr, ptr %10, align 8
  ret ptr %11
}

; Function Attrs: mustprogress nounwind uwtable
define linkonce_odr hidden void @_ZNK13SafePointNode12verify_inputEP8JVMStatej(ptr noundef nonnull align 8 dereferenceable(81) %0, ptr noundef %1, i32 noundef %2) #1 comdat align 2 {
  %4 = alloca ptr, align 8
  %5 = alloca ptr, align 8
  %6 = alloca i32, align 4
  %7 = alloca ptr, align 8
  store ptr %0, ptr %4, align 8
  store ptr %1, ptr %5, align 8
  store i32 %2, ptr %6, align 4
  %8 = load ptr, ptr %4, align 8
  %9 = load i32, ptr %6, align 4
  %10 = call noundef ptr @_ZNK4Node2inEj(ptr noundef nonnull align 8 dereferenceable(52) %8, i32 noundef %9)
  store ptr %10, ptr %7, align 8
  ret void
}

; Function Attrs: mustprogress nounwind uwtable
define linkonce_odr hidden noundef i32 @_ZNK8JVMState6stkoffEv(ptr noundef nonnull align 8 dereferenceable(64) %0) #1 comdat align 2 {
  %2 = alloca ptr, align 8
  store ptr %0, ptr %2, align 8
  %3 = load ptr, ptr %2, align 8
  %4 = getelementptr inbounds %class.JVMState, ptr %3, i32 0, i32 3
  %5 = load i32, ptr %4, align 8
  ret i32 %5
}

; Function Attrs: mustprogress nounwind uwtable
define linkonce_odr hidden noundef ptr @_ZNK13SafePointNode5stackEP8JVMStatej(ptr noundef nonnull align 8 dereferenceable(81) %0, ptr noundef %1, i32 noundef %2) #1 comdat align 2 {
  %4 = alloca ptr, align 8
  %5 = alloca ptr, align 8
  %6 = alloca i32, align 4
  store ptr %0, ptr %4, align 8
  store ptr %1, ptr %5, align 8
  store i32 %2, ptr %6, align 4
  %7 = load ptr, ptr %4, align 8
  %8 = load ptr, ptr %5, align 8
  %9 = load ptr, ptr %5, align 8
  %10 = call noundef i32 @_ZNK8JVMState6stkoffEv(ptr noundef nonnull align 8 dereferenceable(64) %9)
  %11 = load i32, ptr %6, align 4
  %12 = add i32 %10, %11
  call void @_ZNK13SafePointNode12verify_inputEP8JVMStatej(ptr noundef nonnull align 8 dereferenceable(81) %7, ptr noundef %8, i32 noundef %12)
  %13 = load ptr, ptr %5, align 8
  %14 = call noundef i32 @_ZNK8JVMState6stkoffEv(ptr noundef nonnull align 8 dereferenceable(64) %13)
  %15 = load i32, ptr %6, align 4
  %16 = add i32 %14, %15
  %17 = call noundef ptr @_ZNK4Node2inEj(ptr noundef nonnull align 8 dereferenceable(52) %7, i32 noundef %16)
  ret ptr %17
}

; Function Attrs: mustprogress nounwind uwtable
define linkonce_odr hidden noundef ptr @_ZNK8GraphKit12map_not_nullEv(ptr noundef nonnull align 8 dereferenceable(84) %0) #1 comdat align 2 {
  %2 = alloca ptr, align 8
  store ptr %0, ptr %2, align 8
  %3 = load ptr, ptr %2, align 8
  %4 = getelementptr inbounds %class.GraphKit, ptr %3, i32 0, i32 4
  %5 = load ptr, ptr %4, align 8
  ret ptr %5
}

; Function Attrs: mustprogress nounwind uwtable
define linkonce_odr hidden noundef ptr @_ZNK8GraphKit3mapEv(ptr noundef nonnull align 8 dereferenceable(84) %0) #1 comdat align 2 {
  %2 = alloca ptr, align 8
  store ptr %0, ptr %2, align 8
  %3 = load ptr, ptr %2, align 8
  %4 = getelementptr inbounds %class.GraphKit, ptr %3, i32 0, i32 4
  %5 = load ptr, ptr %4, align 8
  ret ptr %5
}

; Function Attrs: mustprogress nounwind uwtable
define linkonce_odr hidden noundef ptr @_ZN8GraphKit3popEv(ptr noundef nonnull align 8 dereferenceable(84) %0) #1 comdat align 2 {
  %2 = alloca ptr, align 8
  store ptr %0, ptr %2, align 8
  %3 = load ptr, ptr %2, align 8
  %4 = call noundef ptr @_ZNK8GraphKit12map_not_nullEv(ptr noundef nonnull align 8 dereferenceable(84) %3)
  %5 = getelementptr inbounds %class.GraphKit, ptr %3, i32 0, i32 4
  %6 = load ptr, ptr %5, align 8
  %7 = getelementptr inbounds %class.GraphKit, ptr %3, i32 0, i32 4
  %8 = load ptr, ptr %7, align 8
  %9 = getelementptr inbounds %class.SafePointNode, ptr %8, i32 0, i32 2
  %10 = load ptr, ptr %9, align 8
  %11 = getelementptr inbounds %class.GraphKit, ptr %3, i32 0, i32 10
  %12 = load i32, ptr %11, align 8
  %13 = add nsw i32 %12, -1
  store i32 %13, ptr %11, align 8
  %14 = call noundef ptr @_ZNK13SafePointNode5stackEP8JVMStatej(ptr noundef nonnull align 8 dereferenceable(81) %6, ptr noundef %10, i32 noundef %13)
  ret ptr %14
}

; Function Attrs: mustprogress nounwind uwtable
define hidden void @_ZN5Parse15do_monitor_exitEv(ptr noundef nonnull align 8 dereferenceable(352) %0) #1 align 2 {
  %2 = alloca ptr, align 8
  store ptr %0, ptr %2, align 8
  %3 = load ptr, ptr %2, align 8
  call void @_ZN8GraphKit16kill_dead_localsEv(ptr noundef nonnull align 8 dereferenceable(84) %3)
  %4 = call noundef ptr @_ZN8GraphKit3popEv(ptr noundef nonnull align 8 dereferenceable(84) %3)
  %5 = call noundef ptr @_ZNK8GraphKit3mapEv(ptr noundef nonnull align 8 dereferenceable(84) %3)
  %6 = call noundef ptr @_ZNK13SafePointNode16peek_monitor_boxEv(ptr noundef nonnull align 8 dereferenceable(81) %5)
  %7 = call noundef ptr @_ZNK8GraphKit3mapEv(ptr noundef nonnull align 8 dereferenceable(84) %3)
  %8 = call noundef ptr @_ZNK13SafePointNode16peek_monitor_objEv(ptr noundef nonnull align 8 dereferenceable(81) %7)
  call void @_ZN8GraphKit13shared_unlockEP4NodeS1_(ptr noundef nonnull align 8 dereferenceable(84) %3, ptr noundef %6, ptr noundef %8)
  ret void
}