; Function Attrs: mustprogress nounwind uwtable
define hidden void @_ZN5Parse15do_monitor_exitEv(ptr noundef nonnull align 8 dereferenceable(352) %0) local_unnamed_addr #2 align 2 {
  tail call void @_ZN8GraphKit16kill_dead_localsEv(ptr noundef nonnull align 8 dereferenceable(84) %0) #8
  %2 = getelementptr inbounds i8, ptr %0, i64 40
  %3 = load ptr, ptr %2, align 8
  %4 = getelementptr inbounds i8, ptr %0, i64 80
  %5 = load i32, ptr %4, align 8
  %6 = add nsw i32 %5, -1
  store i32 %6, ptr %4, align 8
  %7 = tail call noundef ptr @_ZNK13SafePointNode16peek_monitor_boxEv(ptr noundef nonnull align 8 dereferenceable(81) %3) #8
  %8 = load ptr, ptr %2, align 8
  %9 = tail call noundef ptr @_ZNK13SafePointNode16peek_monitor_objEv(ptr noundef nonnull align 8 dereferenceable(81) %8) #8
  tail call void @_ZN8GraphKit13shared_unlockEP4NodeS1_(ptr noundef nonnull align 8 dereferenceable(84) %0, ptr noundef %7, ptr noundef %9) #8
  ret void
}